target datalayout = "e-m:e-p270:32:32-p271:32:32-p272:64:64-i64:64-i128:128-f80:128-n8:16:32:64-S128"
target triple = "x86_64-unknown-linux-gnu"

%class.ref_vector = type { %class.ref_vector_core }
%class.ref_vector_core = type { %class.ref_manager_wrapper, %class.ptr_vector }
%class.ref_manager_wrapper = type { ptr }
%class.ptr_vector = type { %class.vector.0 }
%class.vector.0 = type { ptr }
%class.svector.5 = type { %class.vector.6 }
%class.vector.6 = type { ptr }
%struct.mk_bounded_pp = type <{ ptr, ptr, i32, [4 x i8] }>
%"struct.std::pair" = type { ptr, ptr }
%"class.smt::theory_seq::exclusion_table" = type { ptr, %class.obj_pair_hashtable, %class.ref_vector, %class.ref_vector, %class.svector.5 }
%class.obj_pair_hashtable = type { %class.core_hashtable.base.37, [4 x i8] }
%class.core_hashtable.base.37 = type <{ ptr, i32, i32, i32 }>
%class.core_hashtable.35 = type <{ ptr, i32, i32, i32, [4 x i8] }>
%class.obj_pair_hash_entry = type { i32, %"struct.std::pair" }
%"class.core_hashtable<obj_pair_hash_entry<expr, expr>, obj_ptr_pair_hash<expr, expr>, default_eq<std::pair<expr *, expr *>>>::iterator" = type { ptr, ptr }

@.str.7 = private unnamed_addr constant [2 x i8] c"\0A\00", align 1
@.str.8 = private unnamed_addr constant [5 x i8] c" != \00", align 1

; Function Attrs: mustprogress nounwind uwtable
define linkonce_odr hidden noundef zeroext i1 @_ZNK19obj_pair_hash_entryI4exprS0_E7is_usedEv(ptr noundef nonnull align 8 dereferenceable(24) %this) #4 comdat align 2 {
entry:
  %this.addr = alloca ptr, align 8
  store ptr %this, ptr %this.addr, align 8
  %this1 = load ptr, ptr %this.addr, align 8
  %m_data = getelementptr inbounds %class.obj_pair_hash_entry, ptr %this1, i32 0, i32 1
  %first = getelementptr inbounds %"struct.std::pair", ptr %m_data, i32 0, i32 0
  %0 = load ptr, ptr %first, align 8
  %cmp = icmp ne ptr %0, null
  br i1 %cmp, label %land.rhs, label %land.end

land.rhs:                                         ; preds = %entry
  %m_data2 = getelementptr inbounds %class.obj_pair_hash_entry, ptr %this1, i32 0, i32 1
  %first3 = getelementptr inbounds %"struct.std::pair", ptr %m_data2, i32 0, i32 0
  %1 = load ptr, ptr %first3, align 8
  %cmp4 = icmp ne ptr %1, inttoptr (i64 1 to ptr)
  br label %land.end

land.end:                                         ; preds = %land.rhs, %entry
  %2 = phi i1 [ false, %entry ], [ %cmp4, %land.rhs ]
  ret i1 %2
}

; Function Attrs: mustprogress uwtable
define linkonce_odr hidden void @_ZN14core_hashtableI19obj_pair_hash_entryI4exprS1_E17obj_ptr_pair_hashIS1_S1_E10default_eqISt4pairIPS1_S7_EEE8iterator12move_to_usedEv(ptr noundef nonnull align 8 dereferenceable(16) %this) #5 comdat align 2 {
entry:
  %this.addr = alloca ptr, align 8
  store ptr %this, ptr %this.addr, align 8
  %this1 = load ptr, ptr %this.addr, align 8
  br label %while.cond

while.cond:                                       ; preds = %while.body, %entry
  %m_curr = getelementptr inbounds %"class.core_hashtable<obj_pair_hash_entry<expr, expr>, obj_ptr_pair_hash<expr, expr>, default_eq<std::pair<expr *, expr *>>>::iterator", ptr %this1, i32 0, i32 0
  %0 = load ptr, ptr %m_curr, align 8
  %m_end = getelementptr inbounds %"class.core_hashtable<obj_pair_hash_entry<expr, expr>, obj_ptr_pair_hash<expr, expr>, default_eq<std::pair<expr *, expr *>>>::iterator", ptr %this1, i32 0, i32 1
  %1 = load ptr, ptr %m_end, align 8
  %cmp = icmp ne ptr %0, %1
  br i1 %cmp, label %land.rhs, label %land.end

land.rhs:                                         ; preds = %while.cond
  %m_curr2 = getelementptr inbounds %"class.core_hashtable<obj_pair_hash_entry<expr, expr>, obj_ptr_pair_hash<expr, expr>, default_eq<std::pair<expr *, expr *>>>::iterator", ptr %this1, i32 0, i32 0
  %2 = load ptr, ptr %m_curr2, align 8
  %call = call noundef zeroext i1 @_ZNK19obj_pair_hash_entryI4exprS0_E7is_usedEv(ptr noundef nonnull align 8 dereferenceable(24) %2)
  %lnot = xor i1 %call, true
  br label %land.end

land.end:                                         ; preds = %land.rhs, %while.cond
  %3 = phi i1 [ false, %while.cond ], [ %lnot, %land.rhs ]
  br i1 %3, label %while.body, label %while.end

while.body:                                       ; preds = %land.end
  %m_curr3 = getelementptr inbounds %"class.core_hashtable<obj_pair_hash_entry<expr, expr>, obj_ptr_pair_hash<expr, expr>, default_eq<std::pair<expr *, expr *>>>::iterator", ptr %this1, i32 0, i32 0
  %4 = load ptr, ptr %m_curr3, align 8
  %incdec.ptr = getelementptr inbounds %class.obj_pair_hash_entry, ptr %4, i32 1
  store ptr %incdec.ptr, ptr %m_curr3, align 8
  br label %while.cond, !llvm.loop !138

while.end:                                        ; preds = %land.end
  ret void
}

; Function Attrs: mustprogress nounwind uwtable
define linkonce_odr hidden noundef nonnull align 8 dereferenceable(16) ptr @_ZN19obj_pair_hash_entryI4exprS0_E8get_dataEv(ptr noundef nonnull align 8 dereferenceable(24) %this) #4 comdat align 2 {
entry:
  %this.addr = alloca ptr, align 8
  store ptr %this, ptr %this.addr, align 8
  %this1 = load ptr, ptr %this.addr, align 8
  %m_data = getelementptr inbounds %class.obj_pair_hash_entry, ptr %this1, i32 0, i32 1
  ret ptr %m_data
}

; Function Attrs: mustprogress uwtable
define linkonce_odr hidden void @_ZN14core_hashtableI19obj_pair_hash_entryI4exprS1_E17obj_ptr_pair_hashIS1_S1_E10default_eqISt4pairIPS1_S7_EEE8iteratorC2EPS2_SC_(ptr noundef nonnull align 8 dereferenceable(16) %this, ptr noundef %start, ptr noundef %end) unnamed_addr #5 comdat align 2 {
entry:
  %this.addr = alloca ptr, align 8
  %start.addr = alloca ptr, align 8
  %end.addr = alloca ptr, align 8
  store ptr %this, ptr %this.addr, align 8
  store ptr %start, ptr %start.addr, align 8
  store ptr %end, ptr %end.addr, align 8
  %this1 = load ptr, ptr %this.addr, align 8
  %m_curr = getelementptr inbounds %"class.core_hashtable<obj_pair_hash_entry<expr, expr>, obj_ptr_pair_hash<expr, expr>, default_eq<std::pair<expr *, expr *>>>::iterator", ptr %this1, i32 0, i32 0
  %0 = load ptr, ptr %start.addr, align 8
  store ptr %0, ptr %m_curr, align 8
  %m_end = getelementptr inbounds %"class.core_hashtable<obj_pair_hash_entry<expr, expr>, obj_ptr_pair_hash<expr, expr>, default_eq<std::pair<expr *, expr *>>>::iterator", ptr %this1, i32 0, i32 1
  %1 = load ptr, ptr %end.addr, align 8
  store ptr %1, ptr %m_end, align 8
  call void @_ZN14core_hashtableI19obj_pair_hash_entryI4exprS1_E17obj_ptr_pair_hashIS1_S1_E10default_eqISt4pairIPS1_S7_EEE8iterator12move_to_usedEv(ptr noundef nonnull align 8 dereferenceable(16) %this1)
  ret void
}

; Function Attrs: mustprogress uwtable
define linkonce_odr hidden noundef nonnull align 8 dereferenceable(16) ptr @_ZN14core_hashtableI19obj_pair_hash_entryI4exprS1_E17obj_ptr_pair_hashIS1_S1_E10default_eqISt4pairIPS1_S7_EEE8iteratorppEv(ptr noundef nonnull align 8 dereferenceable(16) %this) #5 comdat align 2 {
entry:
  %this.addr = alloca ptr, align 8
  store ptr %this, ptr %this.addr, align 8
  %this1 = load ptr, ptr %this.addr, align 8
  %m_curr = getelementptr inbounds %"class.core_hashtable<obj_pair_hash_entry<expr, expr>, obj_ptr_pair_hash<expr, expr>, default_eq<std::pair<expr *, expr *>>>::iterator", ptr %this1, i32 0, i32 0
  %0 = load ptr, ptr %m_curr, align 8
  %incdec.ptr = getelementptr inbounds %class.obj_pair_hash_entry, ptr %0, i32 1
  store ptr %incdec.ptr, ptr %m_curr, align 8
  call void @_ZN14core_hashtableI19obj_pair_hash_entryI4exprS1_E17obj_ptr_pair_hashIS1_S1_E10default_eqISt4pairIPS1_S7_EEE8iterator12move_to_usedEv(ptr noundef nonnull align 8 dereferenceable(16) %this1)
  ret ptr %this1
}

; Function Attrs: mustprogress uwtable
define linkonce_odr hidden noundef nonnull align 8 dereferenceable(8) ptr @_ZlsRSoRK13mk_bounded_pp(ptr noundef nonnull align 8 dereferenceable(8) %out, ptr noundef nonnull align 8 dereferenceable(20) %p) #5 comdat {
entry:
  %out.addr = alloca ptr, align 8
  %p.addr = alloca ptr, align 8
  store ptr %out, ptr %out.addr, align 8
  store ptr %p, ptr %p.addr, align 8
  %0 = load ptr, ptr %out.addr, align 8
  %1 = load ptr, ptr %p.addr, align 8
  %m_manager = getelementptr inbounds %struct.mk_bounded_pp, ptr %1, i32 0, i32 1
  %2 = load ptr, ptr %m_manager, align 8
  %3 = load ptr, ptr %p.addr, align 8
  %m_ast = getelementptr inbounds %struct.mk_bounded_pp, ptr %3, i32 0, i32 0
  %4 = load ptr, ptr %m_ast, align 8
  %5 = load ptr, ptr %p.addr, align 8
  %m_depth = getelementptr inbounds %struct.mk_bounded_pp, ptr %5, i32 0, i32 2
  %6 = load i32, ptr %m_depth, align 8
  call void @_Z17ast_ll_bounded_ppRSoR11ast_managerP3astj(ptr noundef nonnull align 8 dereferenceable(8) %0, ptr noundef nonnull align 8 dereferenceable(976) %2, ptr noundef %4, i32 noundef %6)
  %7 = load ptr, ptr %out.addr, align 8
  ret ptr %7
}

; Function Attrs: mustprogress nounwind uwtable
define linkonce_odr hidden void @_ZN13mk_bounded_ppC2EP3astR11ast_managerj(ptr noundef nonnull align 8 dereferenceable(20) %this, ptr noundef %a, ptr noundef nonnull align 8 dereferenceable(976) %m, i32 noundef %depth) unnamed_addr #4 comdat align 2 {
entry:
  %this.addr = alloca ptr, align 8
  %a.addr = alloca ptr, align 8
  %m.addr = alloca ptr, align 8
  %depth.addr = alloca i32, align 4
  store ptr %this, ptr %this.addr, align 8
  store ptr %a, ptr %a.addr, align 8
  store ptr %m, ptr %m.addr, align 8
  store i32 %depth, ptr %depth.addr, align 4
  %this1 = load ptr, ptr %this.addr, align 8
  %m_ast = getelementptr inbounds %struct.mk_bounded_pp, ptr %this1, i32 0, i32 0
  %0 = load ptr, ptr %a.addr, align 8
  store ptr %0, ptr %m_ast, align 8
  %m_manager = getelementptr inbounds %struct.mk_bounded_pp, ptr %this1, i32 0, i32 1
  %1 = load ptr, ptr %m.addr, align 8
  store ptr %1, ptr %m_manager, align 8
  %m_depth = getelementptr inbounds %struct.mk_bounded_pp, ptr %this1, i32 0, i32 2
  %2 = load i32, ptr %depth.addr, align 4
  store i32 %2, ptr %m_depth, align 8
  ret void
}

; Function Attrs: mustprogress nounwind uwtable
define linkonce_odr hidden noundef nonnull align 8 dereferenceable(16) ptr @_ZN14core_hashtableI19obj_pair_hash_entryI4exprS1_E17obj_ptr_pair_hashIS1_S1_E10default_eqISt4pairIPS1_S7_EEE8iteratordeEv(ptr noundef nonnull align 8 dereferenceable(16) %this) #4 comdat align 2 {
entry:
  %this.addr = alloca ptr, align 8
  store ptr %this, ptr %this.addr, align 8
  %this1 = load ptr, ptr %this.addr, align 8
  %m_curr = getelementptr inbounds %"class.core_hashtable<obj_pair_hash_entry<expr, expr>, obj_ptr_pair_hash<expr, expr>, default_eq<std::pair<expr *, expr *>>>::iterator", ptr %this1, i32 0, i32 0
  %0 = load ptr, ptr %m_curr, align 8
  %call = call noundef nonnull align 8 dereferenceable(16) ptr @_ZN19obj_pair_hash_entryI4exprS0_E8get_dataEv(ptr noundef nonnull align 8 dereferenceable(24) %0)
  ret ptr %call
}

; Function Attrs: mustprogress nounwind uwtable
define linkonce_odr hidden noundef zeroext i1 @_ZNK14core_hashtableI19obj_pair_hash_entryI4exprS1_E17obj_ptr_pair_hashIS1_S1_E10default_eqISt4pairIPS1_S7_EEE8iteratorneERKSB_(ptr noundef nonnull align 8 dereferenceable(16) %this, ptr noundef nonnull align 8 dereferenceable(16) %it) #4 comdat align 2 {
entry:
  %this.addr = alloca ptr, align 8
  %it.addr = alloca ptr, align 8
  store ptr %this, ptr %this.addr, align 8
  store ptr %it, ptr %it.addr, align 8
  %this1 = load ptr, ptr %this.addr, align 8
  %m_curr = getelementptr inbounds %"class.core_hashtable<obj_pair_hash_entry<expr, expr>, obj_ptr_pair_hash<expr, expr>, default_eq<std::pair<expr *, expr *>>>::iterator", ptr %this1, i32 0, i32 0
  %0 = load ptr, ptr %m_curr, align 8
  %1 = load ptr, ptr %it.addr, align 8
  %m_curr2 = getelementptr inbounds %"class.core_hashtable<obj_pair_hash_entry<expr, expr>, obj_ptr_pair_hash<expr, expr>, default_eq<std::pair<expr *, expr *>>>::iterator", ptr %1, i32 0, i32 0
  %2 = load ptr, ptr %m_curr2, align 8
  %cmp = icmp ne ptr %0, %2
  ret i1 %cmp
}

; Function Attrs: mustprogress uwtable
define linkonce_odr hidden { ptr, ptr } @_ZNK14core_hashtableI19obj_pair_hash_entryI4exprS1_E17obj_ptr_pair_hashIS1_S1_E10default_eqISt4pairIPS1_S7_EEE3endEv(ptr noundef nonnull align 8 dereferenceable(20) %this) #5 comdat align 2 {
entry:
  %retval = alloca %"class.core_hashtable<obj_pair_hash_entry<expr, expr>, obj_ptr_pair_hash<expr, expr>, default_eq<std::pair<expr *, expr *>>>::iterator", align 8
  %this.addr = alloca ptr, align 8
  store ptr %this, ptr %this.addr, align 8
  %this1 = load ptr, ptr %this.addr, align 8
  %m_table = getelementptr inbounds %class.core_hashtable.35, ptr %this1, i32 0, i32 0
  %0 = load ptr, ptr %m_table, align 8
  %m_capacity = getelementptr inbounds %class.core_hashtable.35, ptr %this1, i32 0, i32 1
  %1 = load i32, ptr %m_capacity, align 8
  %idx.ext = zext i32 %1 to i64
  %add.ptr = getelementptr inbounds %class.obj_pair_hash_entry, ptr %0, i64 %idx.ext
  %m_table2 = getelementptr inbounds %class.core_hashtable.35, ptr %this1, i32 0, i32 0
  %2 = load ptr, ptr %m_table2, align 8
  %m_capacity3 = getelementptr inbounds %class.core_hashtable.35, ptr %this1, i32 0, i32 1
  %3 = load i32, ptr %m_capacity3, align 8
  %idx.ext4 = zext i32 %3 to i64
  %add.ptr5 = getelementptr inbounds %class.obj_pair_hash_entry, ptr %2, i64 %idx.ext4
  call void @_ZN14core_hashtableI19obj_pair_hash_entryI4exprS1_E17obj_ptr_pair_hashIS1_S1_E10default_eqISt4pairIPS1_S7_EEE8iteratorC2EPS2_SC_(ptr noundef nonnull align 8 dereferenceable(16) %retval, ptr noundef %add.ptr, ptr noundef %add.ptr5)
  %4 = load { ptr, ptr }, ptr %retval, align 8
  ret { ptr, ptr } %4
}

; Function Attrs: mustprogress uwtable
define linkonce_odr hidden { ptr, ptr } @_ZNK14core_hashtableI19obj_pair_hash_entryI4exprS1_E17obj_ptr_pair_hashIS1_S1_E10default_eqISt4pairIPS1_S7_EEE5beginEv(ptr noundef nonnull align 8 dereferenceable(20) %this) #5 comdat align 2 {
entry:
  %retval = alloca %"class.core_hashtable<obj_pair_hash_entry<expr, expr>, obj_ptr_pair_hash<expr, expr>, default_eq<std::pair<expr *, expr *>>>::iterator", align 8
  %this.addr = alloca ptr, align 8
  store ptr %this, ptr %this.addr, align 8
  %this1 = load ptr, ptr %this.addr, align 8
  %m_table = getelementptr inbounds %class.core_hashtable.35, ptr %this1, i32 0, i32 0
  %0 = load ptr, ptr %m_table, align 8
  %m_table2 = getelementptr inbounds %class.core_hashtable.35, ptr %this1, i32 0, i32 0
  %1 = load ptr, ptr %m_table2, align 8
  %m_capacity = getelementptr inbounds %class.core_hashtable.35, ptr %this1, i32 0, i32 1
  %2 = load i32, ptr %m_capacity, align 8
  %idx.ext = zext i32 %2 to i64
  %add.ptr = getelementptr inbounds %class.obj_pair_hash_entry, ptr %1, i64 %idx.ext
  call void @_ZN14core_hashtableI19obj_pair_hash_entryI4exprS1_E17obj_ptr_pair_hashIS1_S1_E10default_eqISt4pairIPS1_S7_EEE8iteratorC2EPS2_SC_(ptr noundef nonnull align 8 dereferenceable(16) %retval, ptr noundef %0, ptr noundef %add.ptr)
  %3 = load { ptr, ptr }, ptr %retval, align 8
  ret { ptr, ptr } %3
}

; Function Attrs: mustprogress uwtable
define hidden void @_ZNK3smt10theory_seq15exclusion_table7displayERSo(ptr noundef nonnull align 8 dereferenceable(72) %this, ptr noundef nonnull align 8 dereferenceable(8) %out) #5 align 2 {
entry:
  %this.addr = alloca ptr, align 8
  %out.addr = alloca ptr, align 8
  %__range1 = alloca ptr, align 8
  %__begin1 = alloca %"class.core_hashtable<obj_pair_hash_entry<expr, expr>, obj_ptr_pair_hash<expr, expr>, default_eq<std::pair<expr *, expr *>>>::iterator", align 8
  %__end1 = alloca %"class.core_hashtable<obj_pair_hash_entry<expr, expr>, obj_ptr_pair_hash<expr, expr>, default_eq<std::pair<expr *, expr *>>>::iterator", align 8
  %kv = alloca ptr, align 8
  %ref.tmp = alloca %struct.mk_bounded_pp, align 8
  %ref.tmp7 = alloca %struct.mk_bounded_pp, align 8
  store ptr %this, ptr %this.addr, align 8
  store ptr %out, ptr %out.addr, align 8
  %this1 = load ptr, ptr %this.addr, align 8
  %m_table = getelementptr inbounds %"class.smt::theory_seq::exclusion_table", ptr %this1, i32 0, i32 1
  store ptr %m_table, ptr %__range1, align 8
  %0 = load ptr, ptr %__range1, align 8
  %call = call { ptr, ptr } @_ZNK14core_hashtableI19obj_pair_hash_entryI4exprS1_E17obj_ptr_pair_hashIS1_S1_E10default_eqISt4pairIPS1_S7_EEE5beginEv(ptr noundef nonnull align 8 dereferenceable(20) %0)
  %1 = getelementptr inbounds { ptr, ptr }, ptr %__begin1, i32 0, i32 0
  %2 = extractvalue { ptr, ptr } %call, 0
  store ptr %2, ptr %1, align 8
  %3 = getelementptr inbounds { ptr, ptr }, ptr %__begin1, i32 0, i32 1
  %4 = extractvalue { ptr, ptr } %call, 1
  store ptr %4, ptr %3, align 8
  %5 = load ptr, ptr %__range1, align 8
  %call2 = call { ptr, ptr } @_ZNK14core_hashtableI19obj_pair_hash_entryI4exprS1_E17obj_ptr_pair_hashIS1_S1_E10default_eqISt4pairIPS1_S7_EEE3endEv(ptr noundef nonnull align 8 dereferenceable(20) %5)
  %6 = getelementptr inbounds { ptr, ptr }, ptr %__end1, i32 0, i32 0
  %7 = extractvalue { ptr, ptr } %call2, 0
  store ptr %7, ptr %6, align 8
  %8 = getelementptr inbounds { ptr, ptr }, ptr %__end1, i32 0, i32 1
  %9 = extractvalue { ptr, ptr } %call2, 1
  store ptr %9, ptr %8, align 8
  br label %for.cond

for.cond:                                         ; preds = %for.inc, %entry
  %call3 = call noundef zeroext i1 @_ZNK14core_hashtableI19obj_pair_hash_entryI4exprS1_E17obj_ptr_pair_hashIS1_S1_E10default_eqISt4pairIPS1_S7_EEE8iteratorneERKSB_(ptr noundef nonnull align 8 dereferenceable(16) %__begin1, ptr noundef nonnull align 8 dereferenceable(16) %__end1)
  br i1 %call3, label %for.body, label %for.end

for.body:                                         ; preds = %for.cond
  %call4 = call noundef nonnull align 8 dereferenceable(16) ptr @_ZN14core_hashtableI19obj_pair_hash_entryI4exprS1_E17obj_ptr_pair_hashIS1_S1_E10default_eqISt4pairIPS1_S7_EEE8iteratordeEv(ptr noundef nonnull align 8 dereferenceable(16) %__begin1)
  store ptr %call4, ptr %kv, align 8
  %10 = load ptr, ptr %out.addr, align 8
  %11 = load ptr, ptr %kv, align 8
  %first = getelementptr inbounds %"struct.std::pair", ptr %11, i32 0, i32 0
  %12 = load ptr, ptr %first, align 8
  %m = getelementptr inbounds %"class.smt::theory_seq::exclusion_table", ptr %this1, i32 0, i32 0
  %13 = load ptr, ptr %m, align 8
  call void @_ZN13mk_bounded_ppC2EP3astR11ast_managerj(ptr noundef nonnull align 8 dereferenceable(20) %ref.tmp, ptr noundef %12, ptr noundef nonnull align 8 dereferenceable(976) %13, i32 noundef 2)
  %call5 = call noundef nonnull align 8 dereferenceable(8) ptr @_ZlsRSoRK13mk_bounded_pp(ptr noundef nonnull align 8 dereferenceable(8) %10, ptr noundef nonnull align 8 dereferenceable(20) %ref.tmp)
  %call6 = call noundef nonnull align 8 dereferenceable(8) ptr @_ZStlsISt11char_traitsIcEERSt13basic_ostreamIcT_ES5_PKc(ptr noundef nonnull align 8 dereferenceable(8) %call5, ptr noundef @.str.8)
  %14 = load ptr, ptr %kv, align 8
  %second = getelementptr inbounds %"struct.std::pair", ptr %14, i32 0, i32 1
  %15 = load ptr, ptr %second, align 8
  %m8 = getelementptr inbounds %"class.smt::theory_seq::exclusion_table", ptr %this1, i32 0, i32 0
  %16 = load ptr, ptr %m8, align 8
  call void @_ZN13mk_bounded_ppC2EP3astR11ast_managerj(ptr noundef nonnull align 8 dereferenceable(20) %ref.tmp7, ptr noundef %15, ptr noundef nonnull align 8 dereferenceable(976) %16, i32 noundef 2)
  %call9 = call noundef nonnull align 8 dereferenceable(8) ptr @_ZlsRSoRK13mk_bounded_pp(ptr noundef nonnull align 8 dereferenceable(8) %call6, ptr noundef nonnull align 8 dereferenceable(20) %ref.tmp7)
  %call10 = call noundef nonnull align 8 dereferenceable(8) ptr @_ZStlsISt11char_traitsIcEERSt13basic_ostreamIcT_ES5_PKc(ptr noundef nonnull align 8 dereferenceable(8) %call9, ptr noundef @.str.7)
  br label %for.inc

for.inc:                                          ; preds = %for.body
  %call11 = call noundef nonnull align 8 dereferenceable(16) ptr @_ZN14core_hashtableI19obj_pair_hash_entryI4exprS1_E17obj_ptr_pair_hashIS1_S1_E10default_eqISt4pairIPS1_S7_EEE8iteratorppEv(ptr noundef nonnull align 8 dereferenceable(16) %__begin1)
  br label %for.cond

for.end:                                          ; preds = %for.cond
  ret void
}