; Function Attrs: mustprogress uwtable
define hidden void @_ZNK3smt10theory_seq15exclusion_table7displayERSo(ptr nocapture noundef nonnull readonly align 8 dereferenceable(72) %this, ptr noundef nonnull align 8 dereferenceable(8) %out) local_unnamed_addr #3 align 2 {
entry:
  %m_table = getelementptr inbounds i8, ptr %this, i64 8
  %0 = load ptr, ptr %m_table, align 8
  %m_capacity.i = getelementptr inbounds i8, ptr %this, i64 16
  %1 = load i32, ptr %m_capacity.i, align 8
  %idx.ext.i = zext i32 %1 to i64
  %add.ptr.i = getelementptr inbounds %class.obj_pair_hash_entry, ptr %0, i64 %idx.ext.i
  %cmp.not2.i.i.i = icmp eq i32 %1, 0
  br i1 %cmp.not2.i.i.i, label %_ZNK14core_hashtableI19obj_pair_hash_entryI4exprS1_E17obj_ptr_pair_hashIS1_S1_E10default_eqISt4pairIPS1_S7_EEE5beginEv.exit, label %land.rhs.i.i.i

land.rhs.i.i.i:                                   ; preds = %entry, %while.body.i.i.i
  %retval.sroa.0.0.i = phi ptr [ %incdec.ptr.i.i.i, %while.body.i.i.i ], [ %0, %entry ]
  %m_data.i.i.i.i = getelementptr inbounds i8, ptr %retval.sroa.0.0.i, i64 8
  %2 = load ptr, ptr %m_data.i.i.i.i, align 8
  %switch.i.i.i = icmp ult ptr %2, inttoptr (i64 2 to ptr)
  br i1 %switch.i.i.i, label %while.body.i.i.i, label %_ZNK14core_hashtableI19obj_pair_hash_entryI4exprS1_E17obj_ptr_pair_hashIS1_S1_E10default_eqISt4pairIPS1_S7_EEE5beginEv.exit

while.body.i.i.i:                                 ; preds = %land.rhs.i.i.i
  %incdec.ptr.i.i.i = getelementptr inbounds i8, ptr %retval.sroa.0.0.i, i64 24
  %cmp.not.i.i.i = icmp eq ptr %incdec.ptr.i.i.i, %add.ptr.i
  br i1 %cmp.not.i.i.i, label %for.end, label %land.rhs.i.i.i, !llvm.loop !20

_ZNK14core_hashtableI19obj_pair_hash_entryI4exprS1_E17obj_ptr_pair_hashIS1_S1_E10default_eqISt4pairIPS1_S7_EEE5beginEv.exit: ; preds = %land.rhs.i.i.i, %entry
  %retval.sroa.0.1.i = phi ptr [ %0, %entry ], [ %retval.sroa.0.0.i, %land.rhs.i.i.i ]
  %cmp.i.not16 = icmp eq ptr %retval.sroa.0.1.i, %add.ptr.i
  br i1 %cmp.i.not16, label %for.end, label %for.body

for.body:                                         ; preds = %_ZNK14core_hashtableI19obj_pair_hash_entryI4exprS1_E17obj_ptr_pair_hashIS1_S1_E10default_eqISt4pairIPS1_S7_EEE5beginEv.exit, %_ZN14core_hashtableI19obj_pair_hash_entryI4exprS1_E17obj_ptr_pair_hashIS1_S1_E10default_eqISt4pairIPS1_S7_EEE8iteratorppEv.exit
  %__begin1.sroa.0.017 = phi ptr [ %__begin1.sroa.0.1, %_ZN14core_hashtableI19obj_pair_hash_entryI4exprS1_E17obj_ptr_pair_hashIS1_S1_E10default_eqISt4pairIPS1_S7_EEE8iteratorppEv.exit ], [ %retval.sroa.0.1.i, %_ZNK14core_hashtableI19obj_pair_hash_entryI4exprS1_E17obj_ptr_pair_hashIS1_S1_E10default_eqISt4pairIPS1_S7_EEE5beginEv.exit ]
  %m_data.i.i = getelementptr inbounds i8, ptr %__begin1.sroa.0.017, i64 8
  %3 = load ptr, ptr %m_data.i.i, align 8
  %4 = load ptr, ptr %this, align 8
  tail call void @_Z17ast_ll_bounded_ppRSoR11ast_managerP3astj(ptr noundef nonnull align 8 dereferenceable(8) %out, ptr noundef nonnull align 8 dereferenceable(976) %4, ptr noundef %3, i32 noundef 2)
  %call6 = tail call noundef nonnull align 8 dereferenceable(8) ptr @_ZStlsISt11char_traitsIcEERSt13basic_ostreamIcT_ES5_PKc(ptr noundef nonnull align 8 dereferenceable(8) %out, ptr noundef nonnull @.str.8)
  %second = getelementptr inbounds i8, ptr %__begin1.sroa.0.017, i64 16
  %5 = load ptr, ptr %second, align 8
  %6 = load ptr, ptr %this, align 8
  tail call void @_Z17ast_ll_bounded_ppRSoR11ast_managerP3astj(ptr noundef nonnull align 8 dereferenceable(8) %call6, ptr noundef nonnull align 8 dereferenceable(976) %6, ptr noundef %5, i32 noundef 2)
  %call10 = tail call noundef nonnull align 8 dereferenceable(8) ptr @_ZStlsISt11char_traitsIcEERSt13basic_ostreamIcT_ES5_PKc(ptr noundef nonnull align 8 dereferenceable(8) %call6, ptr noundef nonnull @.str.7)
  %incdec.ptr.i = getelementptr inbounds i8, ptr %__begin1.sroa.0.017, i64 24
  %cmp.not2.i.i = icmp eq ptr %incdec.ptr.i, %add.ptr.i
  br i1 %cmp.not2.i.i, label %for.end, label %land.rhs.i.i

land.rhs.i.i:                                     ; preds = %for.body, %while.body.i.i
  %__begin1.sroa.0.1 = phi ptr [ %incdec.ptr.i.i, %while.body.i.i ], [ %incdec.ptr.i, %for.body ]
  %m_data.i.i.i = getelementptr inbounds i8, ptr %__begin1.sroa.0.1, i64 8
  %7 = load ptr, ptr %m_data.i.i.i, align 8
  %switch.i.i = icmp ult ptr %7, inttoptr (i64 2 to ptr)
  br i1 %switch.i.i, label %while.body.i.i, label %_ZN14core_hashtableI19obj_pair_hash_entryI4exprS1_E17obj_ptr_pair_hashIS1_S1_E10default_eqISt4pairIPS1_S7_EEE8iteratorppEv.exit

while.body.i.i:                                   ; preds = %land.rhs.i.i
  %incdec.ptr.i.i = getelementptr inbounds i8, ptr %__begin1.sroa.0.1, i64 24
  %cmp.not.i.i = icmp eq ptr %incdec.ptr.i.i, %add.ptr.i
  br i1 %cmp.not.i.i, label %for.end, label %land.rhs.i.i, !llvm.loop !20

_ZN14core_hashtableI19obj_pair_hash_entryI4exprS1_E17obj_ptr_pair_hashIS1_S1_E10default_eqISt4pairIPS1_S7_EEE8iteratorppEv.exit: ; preds = %land.rhs.i.i
  %cmp.i.not = icmp eq ptr %__begin1.sroa.0.1, %add.ptr.i
  br i1 %cmp.i.not, label %for.end, label %for.body

for.end:                                          ; preds = %while.body.i.i.i, %for.body, %_ZN14core_hashtableI19obj_pair_hash_entryI4exprS1_E17obj_ptr_pair_hashIS1_S1_E10default_eqISt4pairIPS1_S7_EEE8iteratorppEv.exit, %while.body.i.i, %_ZNK14core_hashtableI19obj_pair_hash_entryI4exprS1_E17obj_ptr_pair_hashIS1_S1_E10default_eqISt4pairIPS1_S7_EEE5beginEv.exit
  ret void
}